; Function Attrs: mustprogress uwtable
define dso_local void @_ZN12b3DynamicBvh15optimizeTopDownEi(ptr noundef nonnull align 8 dereferenceable(96) %0, i32 noundef %1) local_unnamed_addr #2 align 2 personality ptr @__gxx_personality_v0 {
  %3 = alloca %class.b3AlignedObjectArray.2, align 8
  %4 = load ptr, ptr %0, align 8, !tbaa !28
  %.not = icmp eq ptr %4, null
  br i1 %.not, label %44, label %5

5:                                                ; preds = %2
  call void @llvm.lifetime.start.p0(i64 32, ptr nonnull %3) #19
  %6 = getelementptr inbounds nuw i8, ptr %3, i64 24
  store i8 1, ptr %6, align 8, !tbaa !33
  %7 = getelementptr inbounds nuw i8, ptr %3, i64 16
  store ptr null, ptr %7, align 8, !tbaa !36
  %8 = getelementptr inbounds nuw i8, ptr %3, i64 4
  store i32 0, ptr %8, align 4, !tbaa !37
  %9 = getelementptr inbounds nuw i8, ptr %3, i64 8
  store i32 0, ptr %9, align 8, !tbaa !38
  %10 = getelementptr inbounds nuw i8, ptr %0, i64 20
  %11 = load i32, ptr %10, align 4, !tbaa !26
  %12 = icmp sgt i32 %11, 0
  br i1 %12, label %_ZN20b3AlignedObjectArrayIP10b3DbvtNodeE8allocateEi.exit.i, label %_ZN20b3AlignedObjectArrayIP10b3DbvtNodeE7reserveEi.exit

_ZN20b3AlignedObjectArrayIP10b3DbvtNodeE8allocateEi.exit.i: ; preds = %5
  %13 = zext nneg i32 %11 to i64
  %14 = shl nuw nsw i64 %13, 3
  %15 = invoke noundef ptr @_Z22b3AlignedAllocInternalmi(i64 noundef %14, i32 noundef 16)
          to label %.noexc unwind label %42

.noexc:                                           ; preds = %_ZN20b3AlignedObjectArrayIP10b3DbvtNodeE8allocateEi.exit.i
  %16 = icmp eq ptr %15, null
  br i1 %16, label %_ZNK20b3AlignedObjectArrayIP10b3DbvtNodeE4copyEiiPS1_.exit15.i, label %.split.i

.split.i:                                         ; preds = %.noexc
  %17 = load i32, ptr %8, align 4, !tbaa !37
  %18 = icmp sgt i32 %17, 0
  %.pre6 = load ptr, ptr %7, align 8, !tbaa !36
  br i1 %18, label %.lr.ph.i.i, label %_ZNK20b3AlignedObjectArrayIP10b3DbvtNodeE4copyEiiPS1_.exit.i

.lr.ph.i.i:                                       ; preds = %.split.i
  %wide.trip.count.i.i = zext nneg i32 %17 to i64
  br label %19

19:                                               ; preds = %19, %.lr.ph.i.i
  %indvars.iv.i.i = phi i64 [ 0, %.lr.ph.i.i ], [ %indvars.iv.next.i.i, %19 ]
  %20 = getelementptr inbounds nuw ptr, ptr %15, i64 %indvars.iv.i.i
  %21 = getelementptr inbounds nuw ptr, ptr %.pre6, i64 %indvars.iv.i.i
  %22 = load ptr, ptr %21, align 8, !tbaa !39
  store ptr %22, ptr %20, align 8, !tbaa !39
  %indvars.iv.next.i.i = add nuw nsw i64 %indvars.iv.i.i, 1
  %exitcond.not.i.i = icmp eq i64 %indvars.iv.next.i.i, %wide.trip.count.i.i
  br i1 %exitcond.not.i.i, label %_ZNK20b3AlignedObjectArrayIP10b3DbvtNodeE4copyEiiPS1_.exit.i.thread, label %19, !llvm.loop !40

_ZNK20b3AlignedObjectArrayIP10b3DbvtNodeE4copyEiiPS1_.exit15.i: ; preds = %.noexc
  invoke void (ptr, ...) @b3OutputErrorMessageVarArgsInternal(ptr noundef nonnull @.str, ptr noundef nonnull @.str.1, i32 noundef 301)
          to label %.noexc3 unwind label %42

.noexc3:                                          ; preds = %_ZNK20b3AlignedObjectArrayIP10b3DbvtNodeE4copyEiiPS1_.exit15.i
  invoke void (ptr, ...) @b3OutputErrorMessageVarArgsInternal(ptr noundef nonnull @.str.2)
          to label %.noexc4 unwind label %42

.noexc4:                                          ; preds = %.noexc3
  store i32 0, ptr %8, align 4, !tbaa !37
  %.pre = load ptr, ptr %7, align 8, !tbaa !36
  br label %_ZNK20b3AlignedObjectArrayIP10b3DbvtNodeE4copyEiiPS1_.exit.i

_ZNK20b3AlignedObjectArrayIP10b3DbvtNodeE4copyEiiPS1_.exit.i: ; preds = %.noexc4, %.split.i
  %23 = phi ptr [ %.pre, %.noexc4 ], [ %.pre6, %.split.i ]
  %.0.i = phi i32 [ 0, %.noexc4 ], [ %11, %.split.i ]
  %.not.i16.i = icmp eq ptr %23, null
  br i1 %.not.i16.i, label %_ZN20b3AlignedObjectArrayIP10b3DbvtNodeE10deallocateEv.exit.i, label %_ZNK20b3AlignedObjectArrayIP10b3DbvtNodeE4copyEiiPS1_.exit.i.thread

_ZNK20b3AlignedObjectArrayIP10b3DbvtNodeE4copyEiiPS1_.exit.i.thread: ; preds = %19, %_ZNK20b3AlignedObjectArrayIP10b3DbvtNodeE4copyEiiPS1_.exit.i
  %.0.i10 = phi i32 [ %.0.i, %_ZNK20b3AlignedObjectArrayIP10b3DbvtNodeE4copyEiiPS1_.exit.i ], [ %11, %19 ]
  %24 = phi ptr [ %23, %_ZNK20b3AlignedObjectArrayIP10b3DbvtNodeE4copyEiiPS1_.exit.i ], [ %.pre6, %19 ]
  %25 = load i8, ptr %6, align 8, !tbaa !33, !range !30, !noundef !31
  %26 = trunc nuw i8 %25 to i1
  br i1 %26, label %27, label %_ZN20b3AlignedObjectArrayIP10b3DbvtNodeE10deallocateEv.exit.i

27:                                               ; preds = %_ZNK20b3AlignedObjectArrayIP10b3DbvtNodeE4copyEiiPS1_.exit.i.thread
  invoke void @_Z21b3AlignedFreeInternalPv(ptr noundef nonnull %24)
          to label %_ZN20b3AlignedObjectArrayIP10b3DbvtNodeE10deallocateEv.exit.i unwind label %42

_ZN20b3AlignedObjectArrayIP10b3DbvtNodeE10deallocateEv.exit.i: ; preds = %27, %_ZNK20b3AlignedObjectArrayIP10b3DbvtNodeE4copyEiiPS1_.exit.i.thread, %_ZNK20b3AlignedObjectArrayIP10b3DbvtNodeE4copyEiiPS1_.exit.i
  %.0.i11 = phi i32 [ %.0.i10, %27 ], [ %.0.i10, %_ZNK20b3AlignedObjectArrayIP10b3DbvtNodeE4copyEiiPS1_.exit.i.thread ], [ %.0.i, %_ZNK20b3AlignedObjectArrayIP10b3DbvtNodeE4copyEiiPS1_.exit.i ]
  store i8 1, ptr %6, align 8, !tbaa !33
  store ptr %15, ptr %7, align 8, !tbaa !36
  store i32 %.0.i11, ptr %9, align 8, !tbaa !38
  %.pre7 = load ptr, ptr %0, align 8, !tbaa !28
  br label %_ZN20b3AlignedObjectArrayIP10b3DbvtNodeE7reserveEi.exit

_ZN20b3AlignedObjectArrayIP10b3DbvtNodeE7reserveEi.exit: ; preds = %_ZN20b3AlignedObjectArrayIP10b3DbvtNodeE10deallocateEv.exit.i, %5
  %28 = phi ptr [ %.pre7, %_ZN20b3AlignedObjectArrayIP10b3DbvtNodeE10deallocateEv.exit.i ], [ %4, %5 ]
  invoke fastcc void @_ZL13b3FetchLeavesP12b3DynamicBvhP10b3DbvtNodeR20b3AlignedObjectArrayIS2_Ei(ptr noundef %0, ptr noundef %28, ptr noundef nonnull align 8 dereferenceable(25) %3, i32 noundef -1)
          to label %29 unwind label %42

29:                                               ; preds = %_ZN20b3AlignedObjectArrayIP10b3DbvtNodeE7reserveEi.exit
  %30 = load ptr, ptr %7, align 8, !tbaa !36
  %31 = load i32, ptr %8, align 4, !tbaa !37
  %32 = invoke fastcc noundef ptr @_ZL9b3TopDownP12b3DynamicBvhPP10b3DbvtNodeii(ptr noundef %0, ptr noundef %30, i32 noundef %31, i32 noundef %1)
          to label %33 unwind label %42

33:                                               ; preds = %29
  store ptr %32, ptr %0, align 8, !tbaa !28
  %34 = load ptr, ptr %7, align 8, !tbaa !36
  %.not.i.i.i = icmp eq ptr %34, null
  br i1 %.not.i.i.i, label %_ZN20b3AlignedObjectArrayIP10b3DbvtNodeED2Ev.exit, label %35

35:                                               ; preds = %33
  %36 = load i8, ptr %6, align 8, !tbaa !33, !range !30, !noundef !31
  %37 = trunc nuw i8 %36 to i1
  br i1 %37, label %38, label %_ZN20b3AlignedObjectArrayIP10b3DbvtNodeED2Ev.exit

38:                                               ; preds = %35
  invoke void @_Z21b3AlignedFreeInternalPv(ptr noundef nonnull %34)
          to label %_ZN20b3AlignedObjectArrayIP10b3DbvtNodeED2Ev.exit unwind label %39

39:                                               ; preds = %38
  %40 = landingpad { ptr, i32 }
          catch ptr null
  %41 = extractvalue { ptr, i32 } %40, 0
  call void @__clang_call_terminate(ptr %41) #18
  unreachable

_ZN20b3AlignedObjectArrayIP10b3DbvtNodeED2Ev.exit: ; preds = %33, %35, %38
  call void @llvm.lifetime.end.p0(i64 32, ptr nonnull %3) #19
  br label %44

42:                                               ; preds = %27, %.noexc3, %_ZNK20b3AlignedObjectArrayIP10b3DbvtNodeE4copyEiiPS1_.exit15.i, %_ZN20b3AlignedObjectArrayIP10b3DbvtNodeE8allocateEi.exit.i, %29, %_ZN20b3AlignedObjectArrayIP10b3DbvtNodeE7reserveEi.exit
  %43 = landingpad { ptr, i32 }
          cleanup
  call void @_ZN20b3AlignedObjectArrayIP10b3DbvtNodeED2Ev(ptr noundef nonnull align 8 dereferenceable(25) %3) #19
  call void @llvm.lifetime.end.p0(i64 32, ptr nonnull %3) #19
  resume { ptr, i32 } %43

44:                                               ; preds = %_ZN20b3AlignedObjectArrayIP10b3DbvtNodeED2Ev.exit, %2
  ret void
}